(dp1
S'21567'
p2
I197
sS'21566'
p3
I177
sS'21565'
p4
I193
sS'21563'
p5
I210
sS'21562'
p6
I66
sS'21561'
p7
I291
sS'21560'
p8
I78
sS'21569'
p9
I132
sS'21568'
p10
I208
sS'21408'
p11
I126
sS'21404'
p12
I180
sS'21405'
p13
I51
sS'21406'
p14
I38
sS'21407'
p15
I205
sS'21400'
p16
I129
sS'21401'
p17
I99
sS'21402'
p18
I99
sS'21403'
p19
I51
sS'21089'
p20
I87
sS'21538'
p21
I53
sS'21539'
p22
I157
sS'21101'
p23
I287
sS'21100'
p24
I36
sS'21103'
p25
I104
sS'21102'
p26
I112
sS'21105'
p27
I22
sS'21104'
p28
I94
sS'21107'
p29
I110
sS'21106'
p30
I41
sS'21109'
p31
I47
sS'21108'
p32
I25
sS'21069'
p33
I99
sS'21066'
p34
I37
sS'21067'
p35
I72
sS'21065'
p36
I116
sS'21062'
p37
I18
sS'21060'
p38
I101
sS'21208'
p39
I36
sS'21209'
p40
I46
sS'21202'
p41
I194
sS'21203'
p42
I27
sS'21200'
p43
I105
sS'21201'
p44
I189
sS'21206'
p45
I19
sS'21205'
p46
I31
sS'21199'
p47
I32
sS'21192'
p48
I41
sS'21193'
p49
I83
sS'21190'
p50
I32
sS'21191'
p51
I25
sS'21196'
p52
I38
sS'21197'
p53
I140
sS'21194'
p54
I36
sS'21195'
p55
I38
sS'21291'
p56
I75
sS'21290'
p57
I102
sS'21293'
p58
I231
sS'21292'
p59
I60
sS'21295'
p60
I37
sS'21294'
p61
I84
sS'21297'
p62
I55
sS'21296'
p63
I18
sS'21299'
p64
I40
sS'21298'
p65
I24
sS'21336'
p66
I145
sS'21441'
p67
I50
sS'21335'
p68
I267
sS'21332'
p69
I178
sS'21333'
p70
I217
sS'21330'
p71
I43
sS'21447'
p72
I78
sS'21448'
p73
I65
sS'21449'
p74
I157
sS'21338'
p75
I105
sS'21339'
p76
I94
sS'21435'
p77
I54
sS'21434'
p78
I86
sS'21437'
p79
I78
sS'21436'
p80
I48
sS'21431'
p81
I35
sS'21430'
p82
I34
sS'21433'
p83
I47
sS'21534'
p84
I90
sS'21535'
p85
I108
sS'21536'
p86
I184
sS'21530'
p87
I160
sS'21438'
p88
I270
sS'21532'
p89
I238
sS'21533'
p90
I95
sS'21251'
p91
I344
sS'21319'
p92
I155
sS'21022'
p93
I30
sS'21023'
p94
I94
sS'21020'
p95
I105
sS'21026'
p96
I19
sS'21027'
p97
I53
sS'21024'
p98
I85
sS'21028'
p99
I75
sS'21029'
p100
I69
sS'21097'
p101
I89
sS'21096'
p102
I85
sS'21095'
p103
I48
sS'21094'
p104
I18
sS'21093'
p105
I62
sS'21092'
p106
I48
sS'21158'
p107
I286
sS'21090'
p108
I81
sS'21156'
p109
I81
sS'21157'
p110
I143
sS'21155'
p111
I44
sS'21152'
p112
I90
sS'21153'
p113
I109
sS'21099'
p114
I91
sS'21486'
p115
I681
sS'21487'
p116
I32
sS'21480'
p117
I44
sS'21481'
p118
I73
sS'21482'
p119
I33
sS'21483'
p120
I71
sS'21488'
p121
I44
sS'21489'
p122
I55
sS'21273'
p123
I241
sS'21272'
p124
I31
sS'21271'
p125
I32
sS'21270'
p126
I96
sS'21277'
p127
I500
sS'21276'
p128
I89
sS'21275'
p129
I109
sS'21372'
p130
I29
sS'21373'
p131
I35
sS'21370'
p132
I76
sS'21371'
p133
I109
sS'21376'
p134
I237
sS'21374'
p135
I70
sS'21570'
p136
I90
sS'21571'
p137
I191
sS'21572'
p138
I679
sS'21573'
p139
I418
sS'21574'
p140
I76
sS'21575'
p141
I319
sS'21576'
p142
I83
sS'21577'
p143
I185
sS'21578'
p144
I150
sS'21479'
p145
I23
sS'21473'
p146
I320
sS'21472'
p147
I147
sS'21475'
p148
I226
sS'21474'
p149
I62
sS'21477'
p150
I107
sS'21504'
p151
I104
sS'21507'
p152
I124
sS'21506'
p153
I95
sS'21501'
p154
I137
sS'21500'
p155
I342
sS'21503'
p156
I110
sS'21502'
p157
I184
sS'21509'
p158
I78
sS'21508'
p159
I800
sS'21112'
p160
I65
sS'21113'
p161
I33
sS'21110'
p162
I87
sS'21116'
p163
I181
sS'21117'
p164
I54
sS'21114'
p165
I53
sS'21115'
p166
I370
sS'21118'
p167
I100
sS'21119'
p168
I74
sS'21053'
p169
I54
sS'21052'
p170
I121
sS'21051'
p171
I96
sS'21050'
p172
I77
sS'21057'
p173
I178
sS'21055'
p174
I40
sS'21054'
p175
I45
sS'21237'
p176
I57
sS'21236'
p177
I57
sS'21235'
p178
I74
sS'21234'
p179
I45
sS'21233'
p180
I33
sS'21232'
p181
I42
sS'21159'
p182
I78
sS'21239'
p183
I68
sS'21238'
p184
I63
sS'21283'
p185
I59
sS'21280'
p186
I101
sS'21281'
p187
I50
sS'21286'
p188
I51
sS'21287'
p189
I197
sS'21285'
p190
I47
sS'21288'
p191
I57
sS'21411'
p192
I113
sS'21303'
p193
I62
sS'21302'
p194
I94
sS'21301'
p195
I70
sS'21300'
p196
I88
sS'21306'
p197
I75
sS'21305'
p198
I164
sS'21304'
p199
I347
sS'21309'
p200
I125
sS'21308'
p201
I61
sS'21419'
p202
I83
sS'21031'
p203
I94
sS'21426'
p204
I88
sS'21422'
p205
I583
sS'21423'
p206
I326
sS'21541'
p207
I267
sS'21542'
p208
I634
sS'21545'
p209
I122
sS'21428'
p210
I71
sS'21546'
p211
I205
sS'21130'
p212
I92
sS'21131'
p213
I539
sS'21019'
p214
I101
sS'21018'
p215
I98
sS'21017'
p216
I42
sS'21016'
p217
I38
sS'21015'
p218
I93
sS'21014'
p219
I33
sS'21013'
p220
I393
sS'21012'
p221
I27
sS'21011'
p222
I20
sS'21010'
p223
I54
sS'21469'
p224
I180
sS'21080'
p225
I213
sS'21081'
p226
I40
sS'21169'
p227
I172
sS'21083'
p228
I68
sS'21084'
p229
I17
sS'21085'
p230
I18
sS'21086'
p231
I19
sS'21087'
p232
I17
sS'21088'
p233
I17
sS'21162'
p234
I87
sS'21160'
p235
I52
sS'21167'
p236
I107
sS'21166'
p237
I38
sS'21165'
p238
I40
sS'21164'
p239
I63
sS'21347'
p240
I403
sS'21346'
p241
I31
sS'21345'
p242
I62
sS'21343'
p243
I91
sS'21342'
p244
I106
sS'21341'
p245
I107
sS'21340'
p246
I583
sS'21348'
p247
I70
sS'21269'
p248
I138
sS'21264'
p249
I33
sS'21265'
p250
I62
sS'21266'
p251
I43
sS'21267'
p252
I96
sS'21260'
p253
I229
sS'21261'
p254
I131
sS'21262'
p255
I29
sS'21378'
p256
I56
sS'21379'
p257
I346
sS'21279'
p258
I65
sS'21278'
p259
I66
sS'21462'
p260
I81
sS'21460'
p261
I75
sS'21461'
p262
I133
sS'21466'
p263
I185
sS'21467'
p264
I75
sS'21516'
p265
I107
sS'21517'
p266
I145
sS'21514'
p267
I171
sS'21515'
p268
I141
sS'21512'
p269
I196
sS'21513'
p270
I68
sS'21510'
p271
I129
sS'21519'
p272
I63
sS'21044'
p273
I35
sS'21045'
p274
I37
sS'21046'
p275
I195
sS'21047'
p276
I39
sS'21040'
p277
I138
sS'21041'
p278
I56
sS'21042'
p279
I35
sS'21043'
p280
I57
sS'21126'
p281
I84
sS'21123'
p282
I242
sS'21049'
p283
I30
sS'21120'
p284
I176
sS'21220'
p285
I56
sS'21221'
p286
I50
sS'21222'
p287
I44
sS'21223'
p288
I91
sS'21224'
p289
I50
sS'21225'
p290
I88
sS'21227'
p291
I31
sS'21228'
p292
I98
sS'21382'
p293
I204
sS'21381'
p294
I381
sS'21387'
p295
I44
sS'21386'
p296
I170
sS'21385'
p297
I33
sS'21255'
p298
I22
sS'21254'
p299
I40
sS'21257'
p300
I18
sS'21256'
p301
I41
sS'21318'
p302
I98
sS'21250'
p303
I94
sS'21253'
p304
I42
sS'21252'
p305
I20
sS'21314'
p306
I80
sS'21315'
p307
I54
sS'21317'
p308
I67
sS'21259'
p309
I52
sS'21258'
p310
I77
sS'21313'
p311
I159
sS'21549'
p312
I104
sS'21413'
p313
I25
sS'21412'
p314
I100
sS'21558'
p315
I88
sS'21417'
p316
I75
sS'21416'
p317
I39
sS'21415'
p318
I39
sS'21414'
p319
I44
sS'21553'
p320
I43
sS'21550'
p321
I156
sS'21551'
p322
I42
sS'21556'
p323
I196
sS'21557'
p324
I405
sS'21009'
p325
I63
sS'21002'
p326
I448
sS'21004'
p327
I244
sS'21005'
p328
I77
sS'21006'
p329
I461
sS'21007'
p330
I60
sS'21547'
p331
I337
sS'21429'
p332
I64
sS'21129'
p333
I84
sS'21128'
p334
I86
sS'21174'
p335
I111
sS'21175'
p336
I122
sS'21176'
p337
I41
sS'21177'
p338
I24
sS'21173'
p339
I39
sS'21048'
p340
I22
sS'21178'
p341
I44
sS'21179'
p342
I60
sS'21122'
p343
I85
sS'21079'
p344
I81
sS'21078'
p345
I266
sS'21075'
p346
I81
sS'21074'
p347
I58
sS'21077'
p348
I25
sS'21076'
p349
I60
sS'21071'
p350
I83
sS'21070'
p351
I54
sS'21073'
p352
I93
sS'21072'
p353
I66
sS'21337'
p354
I60
sS'21443'
p355
I112
sS'21350'
p356
I22
sS'21352'
p357
I29
sS'21354'
p358
I63
sS'21356'
p359
I48
sS'21357'
p360
I231
sS'21358'
p361
I78
sS'21359'
p362
I143
sS'21219'
p363
I40
sS'21218'
p364
I47
sS'21211'
p365
I24
sS'21210'
p366
I179
sS'21213'
p367
I79
sS'21215'
p368
I56
sS'21214'
p369
I42
sS'21217'
p370
I85
sS'21216'
p371
I113
sS'21189'
p372
I29
sS'21188'
p373
I174
sS'21181'
p374
I19
sS'21180'
p375
I46
sS'21183'
p376
I41
sS'21182'
p377
I20
sS'21185'
p378
I25
sS'21184'
p379
I141
sS'21187'
p380
I69
sS'21186'
p381
I235
sS'21325'
p382
I57
sS'21324'
p383
I83
sS'21455'
p384
I41
sS'21454'
p385
I81
sS'21453'
p386
I73
sS'21451'
p387
I19
sS'21322'
p388
I83
sS'21328'
p389
I18
sS'21459'
p390
I245
sS'21458'
p391
I101
sS'21369'
p392
I217
sS'21368'
p393
I327
sS'21493'
p394
I109
sS'21492'
p395
I161
sS'21327'
p396
I185
sS'21491'
p397
I251
sS'21523'
p398
I111
sS'21522'
p399
I75
sS'21521'
p400
I99
sS'21490'
p401
I85
sS'21526'
p402
I75
sS'21525'
p403
I331
sS'21524'
p404
I90
sS'21529'
p405
I57
sS'21248'
p406
I115
sS'21326'
p407
I48
sS'21138'
p408
I139
sS'21030'
p409
I109
sS'21033'
p410
I57
sS'21032'
p411
I23
sS'21035'
p412
I62
sS'21034'
p413
I69
sS'21037'
p414
I31
sS'21036'
p415
I28
sS'21039'
p416
I45
sS'21038'
p417
I27
sS'21132'
p418
I20
sS'21133'
p419
I42
sS'21134'
p420
I43
sS'21135'
p421
I52
sS'21136'
p422
I34
sS'21137'
p423
I40
sS'21321'
p424
I284
sS'21388'
p425
I67
sS'21149'
p426
I176
sS'21148'
p427
I21
sS'21145'
p428
I138
sS'21144'
p429
I35
sS'21147'
p430
I197
sS'21146'
p431
I53
sS'21141'
p432
I97
sS'21140'
p433
I74
sS'21143'
p434
I65
sS'21142'
p435
I94
sS'21229'
p436
I89
sS'21150'
p437
I90
sS'21246'
p438
I89
sS'21247'
p439
I98
sS'21244'
p440
I97
sS'21498'
p441
I172
sS'21242'
p442
I81
sS'21243'
p443
I120
sS'21240'
p444
I23
sS'21241'
p445
I170
sS'21361'
p446
I17
sS'21360'
p447
I38
sS'21363'
p448
I77
sS'21362'
p449
I66
sS'21497'
p450
I236
sS'21367'
p451
I232
sS'21249'
p452
I79
sS'21394'
p453
I78
sS'21395'
p454
I180
sS'21396'
p455
I65
sS'21397'
p456
I51
sS'21391'
p457
I186
sS'21392'
p458
I120
sS'21393'
p459
I74
sS'21398'
p460
I103
sS'21399'
p461
I72
s.